; Function Attrs: mustprogress uwtable
define void @_ZN2cv19validate_input_argsERKSt6vectorINS_7GRunArgESaIS1_EE(ptr nocapture noundef nonnull readonly align 8 dereferenceable(24) %0) local_unnamed_addr #3 {
  %2 = load ptr, ptr %0, align 8
  %3 = getelementptr inbounds i8, ptr %0, i64 8
  %4 = load ptr, ptr %3, align 8
  %.not7 = icmp eq ptr %2, %4
  br i1 %.not7, label %._crit_edge, label %.lr.ph

.lr.ph:                                           ; preds = %1, %.lr.ph
  %.sroa.04.08 = phi ptr [ %5, %.lr.ph ], [ %2, %1 ]
  tail call void @_ZN2cv18validate_input_argERKNS_7GRunArgE(ptr noundef nonnull align 8 dereferenceable(160) %.sroa.04.08)
  %5 = getelementptr inbounds i8, ptr %.sroa.04.08, i64 160
  %.not = icmp eq ptr %5, %4
  br i1 %.not, label %._crit_edge, label %.lr.ph

._crit_edge:                                      ; preds = %.lr.ph, %1
  ret void
}